; Function Attrs: mustprogress uwtable
define void @cvSet(ptr noundef %0, ptr nocapture noundef readonly byval(%struct.CvScalar) align 8 %1, ptr noundef %2) local_unnamed_addr #5 personality ptr @__gxx_personality_v0 {
  %4 = alloca %"class.cv::Mat", align 8
  %5 = alloca %"class.cv::Scalar_", align 16
  %6 = alloca %"class.cv::_InputArray", align 8
  %7 = alloca %"class.cv::Scalar_", align 16
  %8 = alloca %"class.cv::_InputArray", align 8
  %9 = alloca %"class.cv::Mat", align 8
  call void @_ZN2cv10cvarrToMatEPKvbbiPNS_10AutoBufferIdLm136EEE(ptr dead_on_unwind nonnull writable sret(%"class.cv::Mat") align 8 %4, ptr noundef %0, i1 noundef zeroext false, i1 noundef zeroext true, i32 noundef 0, ptr noundef null)
  %.not = icmp eq ptr %2, null
  %10 = getelementptr inbounds i8, ptr %1, i64 16
  br i1 %.not, label %11, label %18

11:                                               ; preds = %3
  call void @llvm.experimental.noalias.scope.decl(metadata !111)
  %12 = load <2 x double>, ptr %1, align 8, !noalias !111
  store <2 x double> %12, ptr %5, align 16, !alias.scope !111
  %13 = getelementptr inbounds i8, ptr %5, i64 16
  %14 = load <2 x double>, ptr %10, align 8, !noalias !111
  store <2 x double> %14, ptr %13, align 16, !alias.scope !111
  %15 = invoke noundef nonnull align 8 dereferenceable(96) ptr @_ZN2cv3MataSERKNS_7Scalar_IdEE(ptr noundef nonnull align 8 dereferenceable(96) %4, ptr noundef nonnull align 8 dereferenceable(32) %5)
          to label %34 unwind label %16

16:                                               ; preds = %11
  %17 = landingpad { ptr, i32 }
          cleanup
  br label %35

18:                                               ; preds = %3
  call void @llvm.experimental.noalias.scope.decl(metadata !114)
  %19 = load <2 x double>, ptr %1, align 8, !noalias !114
  store <2 x double> %19, ptr %7, align 16, !alias.scope !114
  %20 = getelementptr inbounds i8, ptr %7, i64 16
  %21 = load <2 x double>, ptr %10, align 8, !noalias !114
  store <2 x double> %21, ptr %20, align 16, !alias.scope !114
  %22 = getelementptr inbounds i8, ptr %6, i64 16
  store i32 -1056833530, ptr %6, align 8
  %23 = getelementptr inbounds i8, ptr %6, i64 8
  store ptr %7, ptr %23, align 8
  store i64 17179869185, ptr %22, align 8
  invoke void @_ZN2cv10cvarrToMatEPKvbbiPNS_10AutoBufferIdLm136EEE(ptr dead_on_unwind nonnull writable sret(%"class.cv::Mat") align 8 %9, ptr noundef nonnull %2, i1 noundef zeroext false, i1 noundef zeroext true, i32 noundef 0, ptr noundef null)
          to label %24 unwind label %30

24:                                               ; preds = %18
  %25 = getelementptr inbounds i8, ptr %8, i64 16
  store i32 0, ptr %25, align 8
  %26 = getelementptr inbounds i8, ptr %8, i64 20
  store i32 0, ptr %26, align 4
  store i32 16842752, ptr %8, align 8
  %27 = getelementptr inbounds i8, ptr %8, i64 8
  store ptr %9, ptr %27, align 8
  %28 = invoke noundef nonnull align 8 dereferenceable(96) ptr @_ZN2cv3Mat5setToERKNS_11_InputArrayES3_(ptr noundef nonnull align 8 dereferenceable(96) %4, ptr noundef nonnull align 8 dereferenceable(24) %6, ptr noundef nonnull align 8 dereferenceable(24) %8)
          to label %29 unwind label %32

29:                                               ; preds = %24
  call void @_ZN2cv3MatD1Ev(ptr noundef nonnull align 8 dereferenceable(96) %9) #17
  br label %34

30:                                               ; preds = %18
  %31 = landingpad { ptr, i32 }
          cleanup
  br label %35

32:                                               ; preds = %24
  %33 = landingpad { ptr, i32 }
          cleanup
  call void @_ZN2cv3MatD1Ev(ptr noundef nonnull align 8 dereferenceable(96) %9) #17
  br label %35

34:                                               ; preds = %11, %29
  call void @_ZN2cv3MatD1Ev(ptr noundef nonnull align 8 dereferenceable(96) %4) #17
  ret void

35:                                               ; preds = %30, %32, %16
  %.pn.pn.pn = phi { ptr, i32 } [ %17, %16 ], [ %33, %32 ], [ %31, %30 ]
  call void @_ZN2cv3MatD1Ev(ptr noundef nonnull align 8 dereferenceable(96) %4) #17
  resume { ptr, i32 } %.pn.pn.pn
}